; Function Attrs: mustprogress uwtable
define void @_ZN5folly10IOBufQueue7prependEPKvm(ptr noundef nonnull align 8 captures(none) dereferenceable(64) %0, ptr noundef readonly captures(none) %1, i64 noundef %2) local_unnamed_addr #8 align 2 personality ptr @__gxx_personality_v0 {
  %4 = getelementptr inbounds nuw i8, ptr %0, i64 16
  %5 = load ptr, ptr %4, align 8, !tbaa !28
  %6 = getelementptr inbounds nuw i8, ptr %5, i64 8
  %7 = load ptr, ptr %6, align 8, !tbaa !44
  %8 = getelementptr inbounds nuw i8, ptr %5, i64 24
  %9 = load ptr, ptr %8, align 8, !tbaa !43
  %10 = ptrtoint ptr %7 to i64
  %11 = ptrtoint ptr %9 to i64
  %12 = sub i64 %10, %11
  %.not11 = icmp eq ptr %5, null
  %13 = icmp ult i64 %12, %2
  %or.cond = or i1 %.not11, %13
  br i1 %or.cond, label %14, label %19

14:                                               ; preds = %3
  %15 = tail call ptr @__cxa_allocate_exception(i64 16) #15
  invoke void @_ZNSt14overflow_errorC1EPKc(ptr noundef nonnull align 8 dereferenceable(16) %15, ptr noundef nonnull @.str.15)
          to label %16 unwind label %17

16:                                               ; preds = %14
  tail call void @__cxa_throw(ptr nonnull %15, ptr nonnull @_ZTISt14overflow_error, ptr nonnull @_ZNSt14overflow_errorD1Ev) #16
  unreachable

17:                                               ; preds = %14
  %18 = landingpad { ptr, i32 }
          cleanup
  tail call void @__cxa_free_exception(ptr nonnull %15) #15
  resume { ptr, i32 } %18

19:                                               ; preds = %3
  %20 = getelementptr inbounds nuw i8, ptr %9, i64 %12
  %21 = sub i64 0, %2
  %22 = getelementptr inbounds i8, ptr %20, i64 %21
  tail call void @llvm.memcpy.p0.p0.i64(ptr align 1 %22, ptr align 1 %1, i64 %2, i1 false)
  %23 = load ptr, ptr %4, align 8, !tbaa !28
  %24 = getelementptr inbounds nuw i8, ptr %23, i64 8
  %25 = load ptr, ptr %24, align 8, !tbaa !44
  %26 = getelementptr inbounds i8, ptr %25, i64 %21
  store ptr %26, ptr %24, align 8, !tbaa !44
  %27 = load i64, ptr %23, align 8, !tbaa !34
  %28 = add i64 %27, %2
  store i64 %28, ptr %23, align 8, !tbaa !34
  %29 = getelementptr inbounds nuw i8, ptr %0, i64 8
  %30 = load i64, ptr %29, align 8, !tbaa !35
  %31 = add i64 %30, %2
  store i64 %31, ptr %29, align 8, !tbaa !35
  ret void
}